(lp0
(i__main__
Hit
p1
(dp2
S'category'
p3
S'shell'
p4
sS'end'
p5
I393
sS'name'
p6
S'system'
p7
sS'parameters'
p8
(lp9
sS'level'
p10
F4.0
sS'url'
p11
S''
p12
sS'column'
p13
I1
sS'context_text'
p14
S'system\t'
p15
sS'hook'
p16
c__main__
normal
p17
sS'warning'
p18
S'This causes a new program to execute and is difficult to use safely (CWE-78)'
p19
sS'suggestion'
p20
S'try using a library call that implements the same functionality if available'
p21
sS'line'
p22
I12
sS'filename'
p23
S'hello.cpp'
p24
sS'start'
p25
I387
sba(i__main__
Hit
p26
(dp27
g3
g4
sg5
I401
sg6
S'system'
p28
sg8
(lp29
sg10
F4.0
sg11
g12
sg13
I1
sg14
S'system'
p30
sg16
g17
sg18
g19
sg20
g21
sg22
I13
sg23
g24
sg25
I395
sba(i__main__
Hit
p31
(dp32
g3
g4
sg5
I519
sg6
S'system'
p33
sg8
(lp34
sg10
F4.0
sg11
g12
sg13
I1
sg14
S'system'
p35
sg16
g17
sg18
g19
sg20
g21
sg22
I16
sg23
g24
sg25
I513
sba.